target datalayout = "e-m:e-p270:32:32-p271:32:32-p272:64:64-i64:64-i128:128-f80:128-n8:16:32:64-S128"
target triple = "x86_64-pc-linux-gnu"

@lineno = internal global i32 1, align 4
@.str.17 = private unnamed_addr constant [31 x i8] c"unclosed string, start line %d\00", align 1

; Function Attrs: nounwind uwtable
define internal i32 @endString(ptr noundef %0, ptr noundef %1, i8 noundef signext %2) #0 {
  %4 = alloca i32, align 4
  %5 = alloca ptr, align 8
  %6 = alloca ptr, align 8
  %7 = alloca i8, align 1
  %8 = alloca i32, align 4
  %9 = alloca i32, align 4
  %10 = alloca i32, align 4
  store ptr %0, ptr %5, align 8, !tbaa !11
  store ptr %1, ptr %6, align 8, !tbaa !10
  store i8 %2, ptr %7, align 1, !tbaa !41
  call void @llvm.lifetime.start.p0(i64 4, ptr %8) #12
  %11 = load i32, ptr @lineno, align 4, !tbaa !8
  store i32 %11, ptr %8, align 4, !tbaa !8
  call void @llvm.lifetime.start.p0(i64 4, ptr %9) #12
  br label %12

12:                                               ; preds = %40, %3
  %13 = load ptr, ptr %5, align 8, !tbaa !11
  %14 = call i32 @getc(ptr noundef %13)
  store i32 %14, ptr %9, align 4, !tbaa !8
  %15 = load i8, ptr %7, align 1, !tbaa !41
  %16 = sext i8 %15 to i32
  %17 = icmp ne i32 %14, %16
  br i1 %17, label %18, label %45

18:                                               ; preds = %12
  %19 = load i32, ptr %9, align 4, !tbaa !8
  %20 = icmp eq i32 %19, 92
  br i1 %20, label %21, label %28

21:                                               ; preds = %18
  %22 = load ptr, ptr %6, align 8, !tbaa !10
  %23 = load i32, ptr %9, align 4, !tbaa !8
  %24 = trunc i32 %23 to i8
  %25 = call i32 @agxbputc(ptr noundef %22, i8 noundef signext %24)
  %26 = load ptr, ptr %5, align 8, !tbaa !11
  %27 = call i32 @getc(ptr noundef %26)
  store i32 %27, ptr %9, align 4, !tbaa !8
  br label %28

28:                                               ; preds = %21, %18
  %29 = load i32, ptr %9, align 4, !tbaa !8
  %30 = icmp slt i32 %29, 0
  br i1 %30, label %31, label %34

31:                                               ; preds = %28
  %32 = load i32, ptr %8, align 4, !tbaa !8
  call void (i32, ptr, ...) @error(i32 noundef 2, ptr noundef @.str.17, i32 noundef %32)
  %33 = load i32, ptr %9, align 4, !tbaa !8
  store i32 %33, ptr %4, align 4
  store i32 1, ptr %10, align 4
  br label %50

34:                                               ; preds = %28
  %35 = load i32, ptr %9, align 4, !tbaa !8
  %36 = icmp eq i32 %35, 10
  br i1 %36, label %37, label %40

37:                                               ; preds = %34
  %38 = load i32, ptr @lineno, align 4, !tbaa !8
  %39 = add nsw i32 %38, 1
  store i32 %39, ptr @lineno, align 4, !tbaa !8
  br label %40

40:                                               ; preds = %37, %34
  %41 = load ptr, ptr %6, align 8, !tbaa !10
  %42 = load i32, ptr %9, align 4, !tbaa !8
  %43 = trunc i32 %42 to i8
  %44 = call i32 @agxbputc(ptr noundef %41, i8 noundef signext %43)
  br label %12, !llvm.loop !43

45:                                               ; preds = %12
  %46 = load ptr, ptr %6, align 8, !tbaa !10
  %47 = load i32, ptr %9, align 4, !tbaa !8
  %48 = trunc i32 %47 to i8
  %49 = call i32 @agxbputc(ptr noundef %46, i8 noundef signext %48)
  store i32 0, ptr %4, align 4
  store i32 1, ptr %10, align 4
  br label %50

50:                                               ; preds = %45, %31
  call void @llvm.lifetime.end.p0(i64 4, ptr %9) #12
  call void @llvm.lifetime.end.p0(i64 4, ptr %8) #12
  %51 = load i32, ptr %4, align 4
  ret i32 %51
}

; Function Attrs: nounwind uwtable
define internal i32 @endBracket(ptr noundef %0, ptr noundef %1, i8 noundef signext %2, i8 noundef signext %3) #0 {
  %5 = alloca i32, align 4
  %6 = alloca ptr, align 8
  %7 = alloca ptr, align 8
  %8 = alloca i8, align 1
  %9 = alloca i8, align 1
  %10 = alloca i32, align 4
  %11 = alloca i32, align 4
  store ptr %0, ptr %6, align 8, !tbaa !11
  store ptr %1, ptr %7, align 8, !tbaa !10
  store i8 %2, ptr %8, align 1, !tbaa !41
  store i8 %3, ptr %9, align 1, !tbaa !41
  call void @llvm.lifetime.start.p0(i64 4, ptr %10) #12
  br label %12

12:                                               ; preds = %77, %4
  br label %13

13:                                               ; preds = %12
  %14 = load ptr, ptr %6, align 8, !tbaa !11
  %15 = load ptr, ptr %7, align 8, !tbaa !10
  %16 = call i32 @readc(ptr noundef %14, ptr noundef %15)
  store i32 %16, ptr %10, align 4, !tbaa !8
  %17 = load i32, ptr %10, align 4, !tbaa !8
  %18 = icmp slt i32 %17, 0
  br i1 %18, label %24, label %19

19:                                               ; preds = %13
  %20 = load i32, ptr %10, align 4, !tbaa !8
  %21 = load i8, ptr %9, align 1, !tbaa !41
  %22 = sext i8 %21 to i32
  %23 = icmp eq i32 %20, %22
  br i1 %23, label %24, label %26

24:                                               ; preds = %19, %13
  %25 = load i32, ptr %10, align 4, !tbaa !8
  store i32 %25, ptr %5, align 4
  store i32 1, ptr %11, align 4
  br label %78

26:                                               ; preds = %19
  %27 = load i32, ptr %10, align 4, !tbaa !8
  %28 = load i8, ptr %8, align 1, !tbaa !41
  %29 = sext i8 %28 to i32
  %30 = icmp eq i32 %27, %29
  br i1 %30, label %31, label %51

31:                                               ; preds = %26
  %32 = load ptr, ptr %7, align 8, !tbaa !10
  %33 = load i32, ptr %10, align 4, !tbaa !8
  %34 = trunc i32 %33 to i8
  %35 = call i32 @agxbputc(ptr noundef %32, i8 noundef signext %34)
  %36 = load ptr, ptr %6, align 8, !tbaa !11
  %37 = load ptr, ptr %7, align 8, !tbaa !10
  %38 = load i8, ptr %8, align 1, !tbaa !41
  %39 = load i8, ptr %9, align 1, !tbaa !41
  %40 = call i32 @endBracket(ptr noundef %36, ptr noundef %37, i8 noundef signext %38, i8 noundef signext %39)
  store i32 %40, ptr %10, align 4, !tbaa !8
  %41 = load i32, ptr %10, align 4, !tbaa !8
  %42 = icmp slt i32 %41, 0
  br i1 %42, label %43, label %45

43:                                               ; preds = %31
  %44 = load i32, ptr %10, align 4, !tbaa !8
  store i32 %44, ptr %5, align 4
  store i32 1, ptr %11, align 4
  br label %78

45:                                               ; preds = %31
  %46 = load ptr, ptr %7, align 8, !tbaa !10
  %47 = load i32, ptr %10, align 4, !tbaa !8
  %48 = trunc i32 %47 to i8
  %49 = call i32 @agxbputc(ptr noundef %46, i8 noundef signext %48)
  br label %50

50:                                               ; preds = %45
  br label %76

51:                                               ; preds = %26
  %52 = load i32, ptr %10, align 4, !tbaa !8
  %53 = icmp eq i32 %52, 39
  br i1 %53, label %57, label %54

54:                                               ; preds = %51
  %55 = load i32, ptr %10, align 4, !tbaa !8
  %56 = icmp eq i32 %55, 34
  br i1 %56, label %57, label %70

57:                                               ; preds = %54, %51
  %58 = load ptr, ptr %7, align 8, !tbaa !10
  %59 = load i32, ptr %10, align 4, !tbaa !8
  %60 = trunc i32 %59 to i8
  %61 = call i32 @agxbputc(ptr noundef %58, i8 noundef signext %60)
  %62 = load ptr, ptr %6, align 8, !tbaa !11
  %63 = load ptr, ptr %7, align 8, !tbaa !10
  %64 = load i32, ptr %10, align 4, !tbaa !8
  %65 = trunc i32 %64 to i8
  %66 = call i32 @endString(ptr noundef %62, ptr noundef %63, i8 noundef signext %65)
  %67 = icmp ne i32 %66, 0
  br i1 %67, label %68, label %69

68:                                               ; preds = %57
  store i32 -1, ptr %5, align 4
  store i32 1, ptr %11, align 4
  br label %78

69:                                               ; preds = %57
  br label %75

70:                                               ; preds = %54
  %71 = load ptr, ptr %7, align 8, !tbaa !10
  %72 = load i32, ptr %10, align 4, !tbaa !8
  %73 = trunc i32 %72 to i8
  %74 = call i32 @agxbputc(ptr noundef %71, i8 noundef signext %73)
  br label %75

75:                                               ; preds = %70, %69
  br label %76

76:                                               ; preds = %75, %50
  br label %77

77:                                               ; preds = %76
  br label %12

78:                                               ; preds = %68, %43, %24
  call void @llvm.lifetime.end.p0(i64 4, ptr %10) #12
  %79 = load i32, ptr %5, align 4
  ret i32 %79
}