; Function Attrs: nounwind uwtable
define internal fastcc range(i32 -2147483648, 256) i32 @endBracket(ptr noundef nonnull captures(none) %0, ptr noundef nonnull captures(address_is_null) %1, i8 noundef signext range(i8 91, 124) %2, i8 noundef signext range(i8 93, 126) %3) unnamed_addr #0 {
  %5 = tail call fastcc i32 @readc(ptr noundef %0, ptr noundef nonnull %1)
  %6 = icmp slt i32 %5, 0
  %7 = zext nneg i8 %3 to i32
  %8 = icmp eq i32 %5, %7
  %or.cond3134 = select i1 %6, i1 true, i1 %8
  br i1 %or.cond3134, label %.loopexit, label %.lr.ph

.lr.ph:                                           ; preds = %4
  %9 = zext nneg i8 %2 to i32
  br label %10

10:                                               ; preds = %.lr.ph, %endString.exit.thread
  %11 = phi i32 [ %5, %.lr.ph ], [ %36, %endString.exit.thread ]
  %12 = icmp eq i32 %11, %9
  br i1 %12, label %13, label %16

13:                                               ; preds = %10
  tail call fastcc void @agxbputc(ptr noundef %1, i8 noundef signext %2)
  %14 = tail call fastcc i32 @endBracket(ptr noundef %0, ptr noundef %1, i8 noundef signext %2, i8 noundef signext %3)
  %15 = icmp slt i32 %14, 0
  br i1 %15, label %.loopexit, label %endString.exit.thread

16:                                               ; preds = %10
  switch i32 %11, label %endString.exit.thread [
    i32 39, label %17
    i32 34, label %17
  ]

17:                                               ; preds = %16, %16
  %18 = trunc nuw i32 %11 to i8
  tail call fastcc void @agxbputc(ptr noundef %1, i8 noundef signext %18)
  %19 = load i32, ptr @lineno, align 4, !tbaa !3
  %20 = tail call i32 @getc(ptr noundef nonnull %0)
  %.not17.i = icmp eq i32 %20, %11
  br i1 %.not17.i, label %endString.exit.thread, label %.lr.ph.i

.lr.ph.i:                                         ; preds = %17, %32
  %21 = phi i32 [ %34, %32 ], [ %20, %17 ]
  %22 = icmp eq i32 %21, 92
  br i1 %22, label %23, label %25

23:                                               ; preds = %.lr.ph.i
  tail call fastcc void @agxbputc(ptr noundef nonnull %1, i8 noundef signext 92)
  %24 = tail call i32 @getc(ptr noundef nonnull %0)
  br label %25

25:                                               ; preds = %23, %.lr.ph.i
  %.0.i = phi i32 [ %24, %23 ], [ %21, %.lr.ph.i ]
  %26 = icmp slt i32 %.0.i, 0
  br i1 %26, label %endString.exit, label %27

27:                                               ; preds = %25
  %28 = icmp eq i32 %.0.i, 10
  br i1 %28, label %29, label %32

29:                                               ; preds = %27
  %30 = load i32, ptr @lineno, align 4, !tbaa !3
  %31 = add nsw i32 %30, 1
  store i32 %31, ptr @lineno, align 4, !tbaa !3
  br label %32

32:                                               ; preds = %29, %27
  %33 = trunc i32 %.0.i to i8
  tail call fastcc void @agxbputc(ptr noundef nonnull %1, i8 noundef signext %33)
  %34 = tail call i32 @getc(ptr noundef nonnull %0)
  %.not.i = icmp eq i32 %34, %11
  br i1 %.not.i, label %endString.exit.thread, label %.lr.ph.i, !llvm.loop !34

endString.exit:                                   ; preds = %25
  tail call void (i32, ptr, ...) @error(i32 noundef 2, ptr noundef nonnull @.str.17, i32 noundef %19) #16
  br label %.loopexit

endString.exit.thread:                            ; preds = %32, %16, %17, %13
  %.lcssa.i.sink = phi i32 [ %14, %13 ], [ %20, %17 ], [ %11, %16 ], [ %11, %32 ]
  %35 = trunc i32 %.lcssa.i.sink to i8
  tail call fastcc void @agxbputc(ptr noundef %1, i8 noundef signext %35)
  %36 = tail call fastcc i32 @readc(ptr noundef %0, ptr noundef nonnull %1)
  %37 = icmp slt i32 %36, 0
  %38 = icmp eq i32 %36, %7
  %or.cond31 = select i1 %37, i1 true, i1 %38
  br i1 %or.cond31, label %.loopexit, label %10

.loopexit:                                        ; preds = %endString.exit.thread, %13, %4, %endString.exit
  %.0 = phi i32 [ -1, %endString.exit ], [ %5, %4 ], [ %36, %endString.exit.thread ], [ %14, %13 ]
  ret i32 %.0
}